; ModuleID = '51/466.c'
source_filename = "51/466.c"
target datalayout = "e-m:e-p270:32:32-p271:32:32-p272:64:64-i64:64-f80:128-n8:16:32:64-S128"
target triple = "x86_64-pc-linux-gnu"

@.str = private unnamed_addr constant [4 x i8] c"%d\0A\00", align 1
@.str.1 = private unnamed_addr constant [4 x i8] c"NO\0A\00", align 1
@.str.2 = private unnamed_addr constant [4 x i8] c"%s\0A\00", align 1

; Function Attrs: noinline nounwind uwtable
define dso_local void @main() #0 {
  %1 = alloca [502 x i8], align 16
  %2 = alloca [502 x [5 x i8]], align 16
  %3 = alloca [502 x i32], align 16
  %4 = alloca i32, align 4
  %5 = alloca i32, align 4
  %6 = alloca i32, align 4
  %7 = alloca i32, align 4
  %8 = alloca i32, align 4
  %9 = alloca i32, align 4
  %10 = alloca i32, align 4
  %11 = alloca i32, align 4
  %12 = alloca i32, align 4
  %13 = bitcast [502 x [5 x i8]]* %2 to i8*
  call void @llvm.memset.p0i8.i64(i8* align 16 %13, i8 0, i64 2510, i1 false)
  %14 = bitcast [502 x i32]* %3 to i8*
  call void @llvm.memset.p0i8.i64(i8* align 16 %14, i8 0, i64 2008, i1 false)
  store i32 1, i32* %11, align 4
  store i32 1, i32* %12, align 4
  %15 = call i32 (i8*, ...) @__isoc99_scanf(i8* getelementptr inbounds ([4 x i8], [4 x i8]* @.str, i64 0, i64 0), i32* %8)
  %16 = getelementptr inbounds [502 x i8], [502 x i8]* %1, i64 0, i64 0
  %17 = call i32 (i8*, ...) bitcast (i32 (...)* @gets to i32 (i8*, ...)*)(i8* %16)
  %18 = getelementptr inbounds [502 x i8], [502 x i8]* %1, i64 0, i64 0
  %19 = call i64 @strlen(i8* %18) #4
  %20 = trunc i64 %19 to i32
  store i32 %20, i32* %7, align 4
  store i32 0, i32* %4, align 4
  br label %21

21:                                               ; preds = %152, %0
  %22 = load i32, i32* %4, align 4
  %23 = load i32, i32* %7, align 4
  %24 = load i32, i32* %8, align 4
  %25 = sub nsw i32 %23, %24
  %26 = icmp sle i32 %22, %25
  br i1 %26, label %27, label %155

27:                                               ; preds = %21
  %28 = load i32, i32* %4, align 4
  %29 = sext i32 %28 to i64
  %30 = getelementptr inbounds [502 x i32], [502 x i32]* %3, i64 0, i64 %29
  %31 = load i32, i32* %30, align 4
  %32 = icmp ne i32 %31, 0
  br i1 %32, label %33, label %34

33:                                               ; preds = %27
  br label %152

34:                                               ; preds = %27
  store i32 0, i32* %9, align 4
  store i32 0, i32* %5, align 4
  br label %35

35:                                               ; preds = %84, %34
  %36 = load i32, i32* %5, align 4
  %37 = load i32, i32* %7, align 4
  %38 = load i32, i32* %8, align 4
  %39 = sub nsw i32 %37, %38
  %40 = icmp sle i32 %36, %39
  br i1 %40, label %41, label %87

41:                                               ; preds = %35
  %42 = load i32, i32* %5, align 4
  %43 = sext i32 %42 to i64
  %44 = getelementptr inbounds [502 x i32], [502 x i32]* %3, i64 0, i64 %43
  %45 = load i32, i32* %44, align 4
  %46 = icmp ne i32 %45, 0
  br i1 %46, label %47, label %48

47:                                               ; preds = %41
  br label %84

48:                                               ; preds = %41
  store i32 1, i32* %10, align 4
  store i32 0, i32* %6, align 4
  br label %49

49:                                               ; preds = %71, %48
  %50 = load i32, i32* %6, align 4
  %51 = load i32, i32* %8, align 4
  %52 = icmp slt i32 %50, %51
  br i1 %52, label %53, label %74

53:                                               ; preds = %49
  %54 = load i32, i32* %4, align 4
  %55 = load i32, i32* %6, align 4
  %56 = add nsw i32 %54, %55
  %57 = sext i32 %56 to i64
  %58 = getelementptr inbounds [502 x i8], [502 x i8]* %1, i64 0, i64 %57
  %59 = load i8, i8* %58, align 1
  %60 = sext i8 %59 to i32
  %61 = load i32, i32* %5, align 4
  %62 = load i32, i32* %6, align 4
  %63 = add nsw i32 %61, %62
  %64 = sext i32 %63 to i64
  %65 = getelementptr inbounds [502 x i8], [502 x i8]* %1, i64 0, i64 %64
  %66 = load i8, i8* %65, align 1
  %67 = sext i8 %66 to i32
  %68 = icmp ne i32 %60, %67
  br i1 %68, label %69, label %70

69:                                               ; preds = %53
  store i32 0, i32* %10, align 4
  br label %74

70:                                               ; preds = %53
  br label %71

71:                                               ; preds = %70
  %72 = load i32, i32* %6, align 4
  %73 = add nsw i32 %72, 1
  store i32 %73, i32* %6, align 4
  br label %49

74:                                               ; preds = %69, %49
  %75 = load i32, i32* %10, align 4
  %76 = icmp ne i32 %75, 0
  br i1 %76, label %77, label %83

77:                                               ; preds = %74
  %78 = load i32, i32* %9, align 4
  %79 = add nsw i32 %78, 1
  store i32 %79, i32* %9, align 4
  %80 = load i32, i32* %5, align 4
  %81 = sext i32 %80 to i64
  %82 = getelementptr inbounds [502 x i32], [502 x i32]* %3, i64 0, i64 %81
  store i32 1, i32* %82, align 4
  br label %83

83:                                               ; preds = %77, %74
  br label %84

84:                                               ; preds = %83, %47
  %85 = load i32, i32* %5, align 4
  %86 = add nsw i32 %85, 1
  store i32 %86, i32* %5, align 4
  br label %35

87:                                               ; preds = %35
  %88 = load i32, i32* %9, align 4
  %89 = load i32, i32* %11, align 4
  %90 = icmp sgt i32 %88, %89
  br i1 %90, label %91, label %116

91:                                               ; preds = %87
  %92 = load i32, i32* %9, align 4
  store i32 %92, i32* %11, align 4
  store i32 0, i32* %6, align 4
  br label %93

93:                                               ; preds = %108, %91
  %94 = load i32, i32* %6, align 4
  %95 = load i32, i32* %8, align 4
  %96 = icmp slt i32 %94, %95
  br i1 %96, label %97, label %111

97:                                               ; preds = %93
  %98 = load i32, i32* %4, align 4
  %99 = load i32, i32* %6, align 4
  %100 = add nsw i32 %98, %99
  %101 = sext i32 %100 to i64
  %102 = getelementptr inbounds [502 x i8], [502 x i8]* %1, i64 0, i64 %101
  %103 = load i8, i8* %102, align 1
  %104 = getelementptr inbounds [502 x [5 x i8]], [502 x [5 x i8]]* %2, i64 0, i64 1
  %105 = load i32, i32* %6, align 4
  %106 = sext i32 %105 to i64
  %107 = getelementptr inbounds [5 x i8], [5 x i8]* %104, i64 0, i64 %106
  store i8 %103, i8* %107, align 1
  br label %108

108:                                              ; preds = %97
  %109 = load i32, i32* %6, align 4
  %110 = add nsw i32 %109, 1
  store i32 %110, i32* %6, align 4
  br label %93

111:                                              ; preds = %93
  %112 = getelementptr inbounds [502 x [5 x i8]], [502 x [5 x i8]]* %2, i64 0, i64 1
  %113 = load i32, i32* %8, align 4
  %114 = sext i32 %113 to i64
  %115 = getelementptr inbounds [5 x i8], [5 x i8]* %112, i64 0, i64 %114
  store i8 0, i8* %115, align 1
  store i32 2, i32* %12, align 4
  br label %151

116:                                              ; preds = %87
  %117 = load i32, i32* %9, align 4
  %118 = load i32, i32* %11, align 4
  %119 = icmp eq i32 %117, %118
  br i1 %119, label %120, label %150

120:                                              ; preds = %116
  store i32 0, i32* %6, align 4
  br label %121

121:                                              ; preds = %138, %120
  %122 = load i32, i32* %6, align 4
  %123 = load i32, i32* %8, align 4
  %124 = icmp slt i32 %122, %123
  br i1 %124, label %125, label %141

125:                                              ; preds = %121
  %126 = load i32, i32* %4, align 4
  %127 = load i32, i32* %6, align 4
  %128 = add nsw i32 %126, %127
  %129 = sext i32 %128 to i64
  %130 = getelementptr inbounds [502 x i8], [502 x i8]* %1, i64 0, i64 %129
  %131 = load i8, i8* %130, align 1
  %132 = load i32, i32* %12, align 4
  %133 = sext i32 %132 to i64
  %134 = getelementptr inbounds [502 x [5 x i8]], [502 x [5 x i8]]* %2, i64 0, i64 %133
  %135 = load i32, i32* %6, align 4
  %136 = sext i32 %135 to i64
  %137 = getelementptr inbounds [5 x i8], [5 x i8]* %134, i64 0, i64 %136
  store i8 %131, i8* %137, align 1
  br label %138

138:                                              ; preds = %125
  %139 = load i32, i32* %6, align 4
  %140 = add nsw i32 %139, 1
  store i32 %140, i32* %6, align 4
  br label %121

141:                                              ; preds = %121
  %142 = load i32, i32* %12, align 4
  %143 = sext i32 %142 to i64
  %144 = getelementptr inbounds [502 x [5 x i8]], [502 x [5 x i8]]* %2, i64 0, i64 %143
  %145 = load i32, i32* %8, align 4
  %146 = sext i32 %145 to i64
  %147 = getelementptr inbounds [5 x i8], [5 x i8]* %144, i64 0, i64 %146
  store i8 0, i8* %147, align 1
  %148 = load i32, i32* %12, align 4
  %149 = add nsw i32 %148, 1
  store i32 %149, i32* %12, align 4
  br label %150

150:                                              ; preds = %141, %116
  br label %151

151:                                              ; preds = %150, %111
  br label %152

152:                                              ; preds = %151, %33
  %153 = load i32, i32* %4, align 4
  %154 = add nsw i32 %153, 1
  store i32 %154, i32* %4, align 4
  br label %21

155:                                              ; preds = %21
  %156 = load i32, i32* %11, align 4
  %157 = icmp eq i32 %156, 1
  br i1 %157, label %158, label %160

158:                                              ; preds = %155
  %159 = call i32 (i8*, ...) @printf(i8* getelementptr inbounds ([4 x i8], [4 x i8]* @.str.1, i64 0, i64 0))
  br label %177

160:                                              ; preds = %155
  %161 = load i32, i32* %11, align 4
  %162 = call i32 (i8*, ...) @printf(i8* getelementptr inbounds ([4 x i8], [4 x i8]* @.str, i64 0, i64 0), i32 %161)
  store i32 1, i32* %4, align 4
  br label %163

163:                                              ; preds = %173, %160
  %164 = load i32, i32* %4, align 4
  %165 = load i32, i32* %12, align 4
  %166 = icmp slt i32 %164, %165
  br i1 %166, label %167, label %176

167:                                              ; preds = %163
  %168 = load i32, i32* %4, align 4
  %169 = sext i32 %168 to i64
  %170 = getelementptr inbounds [502 x [5 x i8]], [502 x [5 x i8]]* %2, i64 0, i64 %169
  %171 = getelementptr inbounds [5 x i8], [5 x i8]* %170, i64 0, i64 0
  %172 = call i32 (i8*, ...) @printf(i8* getelementptr inbounds ([4 x i8], [4 x i8]* @.str.2, i64 0, i64 0), i8* %171)
  br label %173

173:                                              ; preds = %167
  %174 = load i32, i32* %4, align 4
  %175 = add nsw i32 %174, 1
  store i32 %175, i32* %4, align 4
  br label %163

176:                                              ; preds = %163
  br label %177

177:                                              ; preds = %176, %158
  ret void
}

; Function Attrs: argmemonly nounwind willreturn
declare void @llvm.memset.p0i8.i64(i8* nocapture writeonly, i8, i64, i1 immarg) #1

declare dso_local i32 @__isoc99_scanf(i8*, ...) #2

declare dso_local i32 @gets(...) #2

; Function Attrs: nounwind readonly
declare dso_local i64 @strlen(i8*) #3

declare dso_local i32 @printf(i8*, ...) #2


!llvm.module.flags = !{!0}
!llvm.ident = !{!1}

!0 = !{i32 1, !"wchar_size", i32 4}
!1 = !{!"clang version 10.0.0-4ubuntu1 "}
